; Function Attrs: mustprogress uwtable
define void @_ZN10OpenSubdiv6v3_6_03Bfr16VertexDescriptor13initFaceSizesEv(ptr noundef nonnull align 8 dereferenceable(152) %0) local_unnamed_addr #2 align 2 {
  %2 = getelementptr inbounds nuw i8, ptr %0, i64 96
  %3 = getelementptr inbounds nuw i8, ptr %0, i64 2
  %4 = load i16, ptr %3, align 2
  %5 = sext i16 %4 to i32
  %6 = add nsw i32 %5, 1
  %7 = icmp eq i32 %6, 0
  br i1 %7, label %8, label %13

8:                                                ; preds = %1
  %9 = getelementptr inbounds i8, ptr %0, i64 144
  %10 = load ptr, ptr %9, align 8
  tail call void @_ZdlPv(ptr noundef %10) #7
  %11 = getelementptr inbounds i8, ptr %0, i64 112
  store ptr %11, ptr %2, align 8
  %12 = getelementptr inbounds i8, ptr %0, i64 108
  store i32 8, ptr %12, align 4
  br label %_ZN10OpenSubdiv6v3_6_03Vtr8internal11StackBufferIiLj8ELb1EE7SetSizeEj.exit

13:                                               ; preds = %1
  %14 = getelementptr inbounds i8, ptr %0, i64 108
  %15 = load i32, ptr %14, align 4
  %16 = icmp ugt i32 %6, %15
  br i1 %16, label %17, label %._ZN10OpenSubdiv6v3_6_03Vtr8internal11StackBufferIiLj8ELb1EE7SetSizeEj.exit_crit_edge

._ZN10OpenSubdiv6v3_6_03Vtr8internal11StackBufferIiLj8ELb1EE7SetSizeEj.exit_crit_edge: ; preds = %13
  %.pre = load ptr, ptr %2, align 8
  br label %_ZN10OpenSubdiv6v3_6_03Vtr8internal11StackBufferIiLj8ELb1EE7SetSizeEj.exit

17:                                               ; preds = %13
  %18 = getelementptr inbounds i8, ptr %0, i64 144
  %19 = load ptr, ptr %18, align 8
  tail call void @_ZdlPv(ptr noundef %19) #7
  %20 = getelementptr inbounds i8, ptr %0, i64 112
  store ptr %20, ptr %2, align 8
  store i32 8, ptr %14, align 4
  %21 = zext i32 %6 to i64
  %22 = shl nuw nsw i64 %21, 2
  %23 = tail call noalias noundef nonnull ptr @_Znwm(i64 noundef %22) #8
  store ptr %23, ptr %18, align 8
  store ptr %23, ptr %2, align 8
  store i32 %6, ptr %14, align 4
  br label %_ZN10OpenSubdiv6v3_6_03Vtr8internal11StackBufferIiLj8ELb1EE7SetSizeEj.exit

_ZN10OpenSubdiv6v3_6_03Vtr8internal11StackBufferIiLj8ELb1EE7SetSizeEj.exit: ; preds = %._ZN10OpenSubdiv6v3_6_03Vtr8internal11StackBufferIiLj8ELb1EE7SetSizeEj.exit_crit_edge, %8, %17
  %24 = phi ptr [ %.pre, %._ZN10OpenSubdiv6v3_6_03Vtr8internal11StackBufferIiLj8ELb1EE7SetSizeEj.exit_crit_edge ], [ %11, %8 ], [ %23, %17 ]
  %25 = getelementptr inbounds i8, ptr %0, i64 104
  store i32 %6, ptr %25, align 8
  %26 = load i16, ptr %3, align 2
  %27 = sext i16 %26 to i64
  %28 = getelementptr i32, ptr %24, i64 %27
  %29 = getelementptr i8, ptr %28, i64 4
  %.not5.i.i.i = icmp eq ptr %24, %29
  br i1 %.not5.i.i.i, label %_ZSt4fillIPiiEvT_S1_RKT0_.exit, label %.lr.ph.i.i.i.preheader

.lr.ph.i.i.i.preheader:                           ; preds = %_ZN10OpenSubdiv6v3_6_03Vtr8internal11StackBufferIiLj8ELb1EE7SetSizeEj.exit
  %30 = shl nsw i64 %27, 2
  %31 = add nsw i64 %30, 4
  tail call void @llvm.memset.p0.i64(ptr align 4 %24, i8 0, i64 %31, i1 false)
  br label %_ZSt4fillIPiiEvT_S1_RKT0_.exit

_ZSt4fillIPiiEvT_S1_RKT0_.exit:                   ; preds = %.lr.ph.i.i.i.preheader, %_ZN10OpenSubdiv6v3_6_03Vtr8internal11StackBufferIiLj8ELb1EE7SetSizeEj.exit
  %32 = load i8, ptr %0, align 8
  %33 = or i8 %32, 32
  store i8 %33, ptr %0, align 8
  ret void
}